target datalayout = "e-m:e-p270:32:32-p271:32:32-p272:64:64-i64:64-i128:128-f80:128-n8:16:32:64-S128"
target triple = "x86_64-pc-linux-gnu"

%"class.osgeo::proj::util::BaseObject" = type { ptr, %"class.std::unique_ptr" }
%"class.std::unique_ptr" = type { %"struct.std::__uniq_ptr_data" }
%"struct.std::__uniq_ptr_data" = type { %"class.std::__uniq_ptr_impl" }
%"class.std::__uniq_ptr_impl" = type { %"class.std::tuple" }
%"class.std::tuple" = type { %"struct.std::_Tuple_impl" }
%"struct.std::_Tuple_impl" = type { %"struct.std::_Head_base.1" }
%"struct.std::_Head_base.1" = type { ptr }
%"class.osgeo::proj::common::IdentifiedObject" = type { %"class.osgeo::proj::util::BaseObject", %"class.osgeo::proj::util::IComparable", %"class.osgeo::proj::io::IWKTExportable", %"class.std::unique_ptr.45" }
%"class.osgeo::proj::util::IComparable" = type { ptr }
%"class.osgeo::proj::io::IWKTExportable" = type { ptr }
%"class.std::unique_ptr.45" = type { %"struct.std::__uniq_ptr_data.46" }
%"struct.std::__uniq_ptr_data.46" = type { %"class.std::__uniq_ptr_impl.47" }
%"class.std::__uniq_ptr_impl.47" = type { %"class.std::tuple.48" }
%"class.std::tuple.48" = type { %"struct.std::_Tuple_impl.49" }
%"struct.std::_Tuple_impl.49" = type { %"struct.std::_Head_base.52" }
%"struct.std::_Head_base.52" = type { ptr }
%"class.osgeo::proj::common::ObjectUsage" = type { %"class.osgeo::proj::common::IdentifiedObject", %"class.std::unique_ptr.208" }
%"class.std::unique_ptr.208" = type { %"struct.std::__uniq_ptr_data.209" }
%"struct.std::__uniq_ptr_data.209" = type { %"class.std::__uniq_ptr_impl.210" }
%"class.std::__uniq_ptr_impl.210" = type { %"class.std::tuple.211" }
%"class.std::tuple.211" = type { %"struct.std::_Tuple_impl.212" }
%"struct.std::_Tuple_impl.212" = type { %"struct.std::_Head_base.215" }
%"struct.std::_Head_base.215" = type { ptr }

; Function Attrs: mustprogress nounwind uwtable
define linkonce_odr hidden noundef nonnull align 1 dereferenceable(1) ptr @_ZNSt10_Head_baseILm1ESt14default_deleteIN5osgeo4proj6common16IdentifiedObject7PrivateEELb1EE7_M_headERS7_(ptr noundef nonnull align 1 dereferenceable(1) %0) #4 comdat align 2 {
  %2 = alloca ptr, align 8
  store ptr %0, ptr %2, align 8, !tbaa !463
  %3 = load ptr, ptr %2, align 8, !tbaa !463
  ret ptr %3
}

; Function Attrs: mustprogress nounwind uwtable
define linkonce_odr hidden noundef nonnull align 1 dereferenceable(1) ptr @_ZNSt11_Tuple_implILm1EJSt14default_deleteIN5osgeo4proj6common16IdentifiedObject7PrivateEEEE7_M_headERS7_(ptr noundef nonnull align 1 dereferenceable(1) %0) #4 comdat align 2 {
  %2 = alloca ptr, align 8
  store ptr %0, ptr %2, align 8, !tbaa !457
  %3 = load ptr, ptr %2, align 8, !tbaa !457
  %4 = call noundef nonnull align 1 dereferenceable(1) ptr @_ZNSt10_Head_baseILm1ESt14default_deleteIN5osgeo4proj6common16IdentifiedObject7PrivateEELb1EE7_M_headERS7_(ptr noundef nonnull align 1 dereferenceable(1) %3) #28
  ret ptr %4
}

; Function Attrs: mustprogress nounwind uwtable
define linkonce_odr hidden noundef nonnull align 8 dereferenceable(8) ptr @_ZNSt10_Head_baseILm0EPN5osgeo4proj6common16IdentifiedObject7PrivateELb0EE7_M_headERS6_(ptr noundef nonnull align 8 dereferenceable(8) %0) #4 comdat align 2 {
  %2 = alloca ptr, align 8
  store ptr %0, ptr %2, align 8, !tbaa !459
  %3 = load ptr, ptr %2, align 8, !tbaa !459
  %4 = getelementptr inbounds nuw %"struct.std::_Head_base.52", ptr %3, i32 0, i32 0
  ret ptr %4
}

; Function Attrs: mustprogress nounwind uwtable
define linkonce_odr hidden noundef nonnull align 1 dereferenceable(1) ptr @_ZNSt10_Head_baseILm1ESt14default_deleteIN5osgeo4proj6common11ObjectUsage7PrivateEELb1EE7_M_headERS7_(ptr noundef nonnull align 1 dereferenceable(1) %0) #4 comdat align 2 {
  %2 = alloca ptr, align 8
  store ptr %0, ptr %2, align 8, !tbaa !580
  %3 = load ptr, ptr %2, align 8, !tbaa !580
  ret ptr %3
}

; Function Attrs: mustprogress nounwind uwtable
define linkonce_odr hidden noundef nonnull align 1 dereferenceable(1) ptr @_ZSt12__get_helperILm1ESt14default_deleteIN5osgeo4proj6common16IdentifiedObject7PrivateEEJEERT0_RSt11_Tuple_implIXT_EJS7_DpT1_EE(ptr noundef nonnull align 1 dereferenceable(1) %0) #4 comdat {
  %2 = alloca ptr, align 8
  store ptr %0, ptr %2, align 8, !tbaa !457
  %3 = load ptr, ptr %2, align 8, !tbaa !457
  %4 = call noundef nonnull align 1 dereferenceable(1) ptr @_ZNSt11_Tuple_implILm1EJSt14default_deleteIN5osgeo4proj6common16IdentifiedObject7PrivateEEEE7_M_headERS7_(ptr noundef nonnull align 1 dereferenceable(1) %3) #28
  ret ptr %4
}

; Function Attrs: mustprogress nounwind uwtable
define linkonce_odr hidden noundef nonnull align 8 dereferenceable(8) ptr @_ZNSt11_Tuple_implILm0EJPN5osgeo4proj6common16IdentifiedObject7PrivateESt14default_deleteIS4_EEE7_M_headERS8_(ptr noundef nonnull align 8 dereferenceable(8) %0) #4 comdat align 2 {
  %2 = alloca ptr, align 8
  store ptr %0, ptr %2, align 8, !tbaa !455
  %3 = load ptr, ptr %2, align 8, !tbaa !455
  %4 = call noundef nonnull align 8 dereferenceable(8) ptr @_ZNSt10_Head_baseILm0EPN5osgeo4proj6common16IdentifiedObject7PrivateELb0EE7_M_headERS6_(ptr noundef nonnull align 8 dereferenceable(8) %3) #28
  ret ptr %4
}

; Function Attrs: mustprogress nounwind uwtable
define linkonce_odr hidden noundef nonnull align 1 dereferenceable(1) ptr @_ZNSt11_Tuple_implILm1EJSt14default_deleteIN5osgeo4proj6common11ObjectUsage7PrivateEEEE7_M_headERS7_(ptr noundef nonnull align 1 dereferenceable(1) %0) #4 comdat align 2 {
  %2 = alloca ptr, align 8
  store ptr %0, ptr %2, align 8, !tbaa !574
  %3 = load ptr, ptr %2, align 8, !tbaa !574
  %4 = call noundef nonnull align 1 dereferenceable(1) ptr @_ZNSt10_Head_baseILm1ESt14default_deleteIN5osgeo4proj6common11ObjectUsage7PrivateEELb1EE7_M_headERS7_(ptr noundef nonnull align 1 dereferenceable(1) %3) #28
  ret ptr %4
}

; Function Attrs: mustprogress nounwind uwtable
define linkonce_odr hidden noundef nonnull align 8 dereferenceable(8) ptr @_ZNSt10_Head_baseILm0EPN5osgeo4proj6common11ObjectUsage7PrivateELb0EE7_M_headERS6_(ptr noundef nonnull align 8 dereferenceable(8) %0) #4 comdat align 2 {
  %2 = alloca ptr, align 8
  store ptr %0, ptr %2, align 8, !tbaa !576
  %3 = load ptr, ptr %2, align 8, !tbaa !576
  %4 = getelementptr inbounds nuw %"struct.std::_Head_base.215", ptr %3, i32 0, i32 0
  ret ptr %4
}

; Function Attrs: mustprogress nounwind uwtable
define linkonce_odr hidden noundef nonnull align 1 dereferenceable(1) ptr @_ZSt3getILm1EJPN5osgeo4proj6common16IdentifiedObject7PrivateESt14default_deleteIS4_EEERNSt13tuple_elementIXT_ESt5tupleIJDpT0_EEE4typeERSC_(ptr noundef nonnull align 8 dereferenceable(8) %0) #4 comdat {
  %2 = alloca ptr, align 8
  store ptr %0, ptr %2, align 8, !tbaa !453
  %3 = load ptr, ptr %2, align 8, !tbaa !453
  %4 = call noundef nonnull align 1 dereferenceable(1) ptr @_ZSt12__get_helperILm1ESt14default_deleteIN5osgeo4proj6common16IdentifiedObject7PrivateEEJEERT0_RSt11_Tuple_implIXT_EJS7_DpT1_EE(ptr noundef nonnull align 1 dereferenceable(1) %3) #28
  ret ptr %4
}

; Function Attrs: mustprogress nounwind uwtable
define linkonce_odr hidden noundef nonnull align 8 dereferenceable(8) ptr @_ZSt12__get_helperILm0EPN5osgeo4proj6common16IdentifiedObject7PrivateEJSt14default_deleteIS4_EEERT0_RSt11_Tuple_implIXT_EJS8_DpT1_EE(ptr noundef nonnull align 8 dereferenceable(8) %0) #4 comdat {
  %2 = alloca ptr, align 8
  store ptr %0, ptr %2, align 8, !tbaa !455
  %3 = load ptr, ptr %2, align 8, !tbaa !455
  %4 = call noundef nonnull align 8 dereferenceable(8) ptr @_ZNSt11_Tuple_implILm0EJPN5osgeo4proj6common16IdentifiedObject7PrivateESt14default_deleteIS4_EEE7_M_headERS8_(ptr noundef nonnull align 8 dereferenceable(8) %3) #28
  ret ptr %4
}

; Function Attrs: mustprogress nounwind uwtable
define linkonce_odr hidden noundef nonnull align 1 dereferenceable(1) ptr @_ZSt12__get_helperILm1ESt14default_deleteIN5osgeo4proj6common11ObjectUsage7PrivateEEJEERT0_RSt11_Tuple_implIXT_EJS7_DpT1_EE(ptr noundef nonnull align 1 dereferenceable(1) %0) #4 comdat {
  %2 = alloca ptr, align 8
  store ptr %0, ptr %2, align 8, !tbaa !574
  %3 = load ptr, ptr %2, align 8, !tbaa !574
  %4 = call noundef nonnull align 1 dereferenceable(1) ptr @_ZNSt11_Tuple_implILm1EJSt14default_deleteIN5osgeo4proj6common11ObjectUsage7PrivateEEEE7_M_headERS7_(ptr noundef nonnull align 1 dereferenceable(1) %3) #28
  ret ptr %4
}

; Function Attrs: mustprogress nounwind uwtable
define linkonce_odr hidden noundef nonnull align 8 dereferenceable(8) ptr @_ZNSt11_Tuple_implILm0EJPN5osgeo4proj6common11ObjectUsage7PrivateESt14default_deleteIS4_EEE7_M_headERS8_(ptr noundef nonnull align 8 dereferenceable(8) %0) #4 comdat align 2 {
  %2 = alloca ptr, align 8
  store ptr %0, ptr %2, align 8, !tbaa !572
  %3 = load ptr, ptr %2, align 8, !tbaa !572
  %4 = call noundef nonnull align 8 dereferenceable(8) ptr @_ZNSt10_Head_baseILm0EPN5osgeo4proj6common11ObjectUsage7PrivateELb0EE7_M_headERS6_(ptr noundef nonnull align 8 dereferenceable(8) %3) #28
  ret ptr %4
}

; Function Attrs: mustprogress nounwind uwtable
define linkonce_odr hidden noundef nonnull align 1 dereferenceable(1) ptr @_ZNSt15__uniq_ptr_implIN5osgeo4proj6common16IdentifiedObject7PrivateESt14default_deleteIS4_EE10_M_deleterEv(ptr noundef nonnull align 8 dereferenceable(8) %0) #4 comdat align 2 {
  %2 = alloca ptr, align 8
  store ptr %0, ptr %2, align 8, !tbaa !451
  %3 = load ptr, ptr %2, align 8
  %4 = getelementptr inbounds nuw %"class.std::__uniq_ptr_impl.47", ptr %3, i32 0, i32 0
  %5 = call noundef nonnull align 1 dereferenceable(1) ptr @_ZSt3getILm1EJPN5osgeo4proj6common16IdentifiedObject7PrivateESt14default_deleteIS4_EEERNSt13tuple_elementIXT_ESt5tupleIJDpT0_EEE4typeERSC_(ptr noundef nonnull align 8 dereferenceable(8) %4) #28
  ret ptr %5
}

; Function Attrs: mustprogress nounwind uwtable
define linkonce_odr hidden noundef nonnull align 8 dereferenceable(8) ptr @_ZSt3getILm0EJPN5osgeo4proj6common16IdentifiedObject7PrivateESt14default_deleteIS4_EEERNSt13tuple_elementIXT_ESt5tupleIJDpT0_EEE4typeERSC_(ptr noundef nonnull align 8 dereferenceable(8) %0) #4 comdat {
  %2 = alloca ptr, align 8
  store ptr %0, ptr %2, align 8, !tbaa !453
  %3 = load ptr, ptr %2, align 8, !tbaa !453
  %4 = call noundef nonnull align 8 dereferenceable(8) ptr @_ZSt12__get_helperILm0EPN5osgeo4proj6common16IdentifiedObject7PrivateEJSt14default_deleteIS4_EEERT0_RSt11_Tuple_implIXT_EJS8_DpT1_EE(ptr noundef nonnull align 8 dereferenceable(8) %3) #28
  ret ptr %4
}

; Function Attrs: mustprogress nounwind uwtable
define linkonce_odr hidden noundef nonnull align 1 dereferenceable(1) ptr @_ZSt3getILm1EJPN5osgeo4proj6common11ObjectUsage7PrivateESt14default_deleteIS4_EEERNSt13tuple_elementIXT_ESt5tupleIJDpT0_EEE4typeERSC_(ptr noundef nonnull align 8 dereferenceable(8) %0) #4 comdat {
  %2 = alloca ptr, align 8
  store ptr %0, ptr %2, align 8, !tbaa !570
  %3 = load ptr, ptr %2, align 8, !tbaa !570
  %4 = call noundef nonnull align 1 dereferenceable(1) ptr @_ZSt12__get_helperILm1ESt14default_deleteIN5osgeo4proj6common11ObjectUsage7PrivateEEJEERT0_RSt11_Tuple_implIXT_EJS7_DpT1_EE(ptr noundef nonnull align 1 dereferenceable(1) %3) #28
  ret ptr %4
}

; Function Attrs: mustprogress nounwind uwtable
define linkonce_odr hidden noundef nonnull align 8 dereferenceable(8) ptr @_ZSt12__get_helperILm0EPN5osgeo4proj6common11ObjectUsage7PrivateEJSt14default_deleteIS4_EEERT0_RSt11_Tuple_implIXT_EJS8_DpT1_EE(ptr noundef nonnull align 8 dereferenceable(8) %0) #4 comdat {
  %2 = alloca ptr, align 8
  store ptr %0, ptr %2, align 8, !tbaa !572
  %3 = load ptr, ptr %2, align 8, !tbaa !572
  %4 = call noundef nonnull align 8 dereferenceable(8) ptr @_ZNSt11_Tuple_implILm0EJPN5osgeo4proj6common11ObjectUsage7PrivateESt14default_deleteIS4_EEE7_M_headERS8_(ptr noundef nonnull align 8 dereferenceable(8) %3) #28
  ret ptr %4
}

; Function Attrs: mustprogress nounwind uwtable
define linkonce_odr hidden void @_ZNKSt14default_deleteIN5osgeo4proj6common16IdentifiedObject7PrivateEEclEPS4_(ptr noundef nonnull align 1 dereferenceable(1) %0, ptr noundef %1) #4 comdat align 2 {
  %3 = alloca ptr, align 8
  %4 = alloca ptr, align 8
  store ptr %0, ptr %3, align 8, !tbaa !465
  store ptr %1, ptr %4, align 8, !tbaa !109
  %5 = load ptr, ptr %4, align 8, !tbaa !109
  %6 = icmp eq ptr %5, null
  br i1 %6, label %8, label %7

7:                                                ; preds = %2
  call void @_ZN5osgeo4proj6common16IdentifiedObject7PrivateD2Ev(ptr noundef nonnull align 8 dereferenceable(97) %5) #28
  call void @_ZdlPvm(ptr noundef %5, i64 noundef 104) #30
  br label %8

8:                                                ; preds = %7, %2
  ret void
}

; Function Attrs: mustprogress nounwind uwtable
define linkonce_odr hidden noundef nonnull align 1 dereferenceable(1) ptr @_ZNSt10unique_ptrIN5osgeo4proj6common16IdentifiedObject7PrivateESt14default_deleteIS4_EE11get_deleterEv(ptr noundef nonnull align 8 dereferenceable(8) %0) #4 comdat align 2 {
  %2 = alloca ptr, align 8
  store ptr %0, ptr %2, align 8, !tbaa !111
  %3 = load ptr, ptr %2, align 8
  %4 = getelementptr inbounds nuw %"class.std::unique_ptr.45", ptr %3, i32 0, i32 0
  %5 = call noundef nonnull align 1 dereferenceable(1) ptr @_ZNSt15__uniq_ptr_implIN5osgeo4proj6common16IdentifiedObject7PrivateESt14default_deleteIS4_EE10_M_deleterEv(ptr noundef nonnull align 8 dereferenceable(8) %4) #28
  ret ptr %5
}

; Function Attrs: mustprogress nounwind uwtable
define linkonce_odr hidden noundef nonnull align 8 dereferenceable(8) ptr @_ZNSt15__uniq_ptr_implIN5osgeo4proj6common16IdentifiedObject7PrivateESt14default_deleteIS4_EE6_M_ptrEv(ptr noundef nonnull align 8 dereferenceable(8) %0) #4 comdat align 2 {
  %2 = alloca ptr, align 8
  store ptr %0, ptr %2, align 8, !tbaa !451
  %3 = load ptr, ptr %2, align 8
  %4 = getelementptr inbounds nuw %"class.std::__uniq_ptr_impl.47", ptr %3, i32 0, i32 0
  %5 = call noundef nonnull align 8 dereferenceable(8) ptr @_ZSt3getILm0EJPN5osgeo4proj6common16IdentifiedObject7PrivateESt14default_deleteIS4_EEERNSt13tuple_elementIXT_ESt5tupleIJDpT0_EEE4typeERSC_(ptr noundef nonnull align 8 dereferenceable(8) %4) #28
  ret ptr %5
}

; Function Attrs: mustprogress nounwind uwtable
define linkonce_odr hidden noundef nonnull align 1 dereferenceable(1) ptr @_ZNSt15__uniq_ptr_implIN5osgeo4proj6common11ObjectUsage7PrivateESt14default_deleteIS4_EE10_M_deleterEv(ptr noundef nonnull align 8 dereferenceable(8) %0) #4 comdat align 2 {
  %2 = alloca ptr, align 8
  store ptr %0, ptr %2, align 8, !tbaa !568
  %3 = load ptr, ptr %2, align 8
  %4 = getelementptr inbounds nuw %"class.std::__uniq_ptr_impl.210", ptr %3, i32 0, i32 0
  %5 = call noundef nonnull align 1 dereferenceable(1) ptr @_ZSt3getILm1EJPN5osgeo4proj6common11ObjectUsage7PrivateESt14default_deleteIS4_EEERNSt13tuple_elementIXT_ESt5tupleIJDpT0_EEE4typeERSC_(ptr noundef nonnull align 8 dereferenceable(8) %4) #28
  ret ptr %5
}

; Function Attrs: mustprogress nounwind uwtable
define linkonce_odr hidden noundef nonnull align 8 dereferenceable(8) ptr @_ZSt3getILm0EJPN5osgeo4proj6common11ObjectUsage7PrivateESt14default_deleteIS4_EEERNSt13tuple_elementIXT_ESt5tupleIJDpT0_EEE4typeERSC_(ptr noundef nonnull align 8 dereferenceable(8) %0) #4 comdat {
  %2 = alloca ptr, align 8
  store ptr %0, ptr %2, align 8, !tbaa !570
  %3 = load ptr, ptr %2, align 8, !tbaa !570
  %4 = call noundef nonnull align 8 dereferenceable(8) ptr @_ZSt12__get_helperILm0EPN5osgeo4proj6common11ObjectUsage7PrivateEJSt14default_deleteIS4_EEERT0_RSt11_Tuple_implIXT_EJS8_DpT1_EE(ptr noundef nonnull align 8 dereferenceable(8) %3) #28
  ret ptr %4
}

; Function Attrs: mustprogress nounwind uwtable
define linkonce_odr hidden void @_ZNSt10unique_ptrIN5osgeo4proj6common16IdentifiedObject7PrivateESt14default_deleteIS4_EED2Ev(ptr noundef nonnull align 8 dereferenceable(8) %0) unnamed_addr #4 comdat align 2 personality ptr @__gxx_personality_v0 {
  %2 = alloca ptr, align 8
  %3 = alloca ptr, align 8
  store ptr %0, ptr %2, align 8, !tbaa !111
  %4 = load ptr, ptr %2, align 8
  call void @llvm.lifetime.start.p0(i64 8, ptr %3) #28
  %5 = getelementptr inbounds nuw %"class.std::unique_ptr.45", ptr %4, i32 0, i32 0
  %6 = call noundef nonnull align 8 dereferenceable(8) ptr @_ZNSt15__uniq_ptr_implIN5osgeo4proj6common16IdentifiedObject7PrivateESt14default_deleteIS4_EE6_M_ptrEv(ptr noundef nonnull align 8 dereferenceable(8) %5) #28
  store ptr %6, ptr %3, align 8, !tbaa !113
  %7 = load ptr, ptr %3, align 8, !tbaa !113
  %8 = load ptr, ptr %7, align 8, !tbaa !109
  %9 = icmp ne ptr %8, null
  br i1 %9, label %10, label %15

10:                                               ; preds = %1
  %11 = call noundef nonnull align 1 dereferenceable(1) ptr @_ZNSt10unique_ptrIN5osgeo4proj6common16IdentifiedObject7PrivateESt14default_deleteIS4_EE11get_deleterEv(ptr noundef nonnull align 8 dereferenceable(8) %4) #28
  %12 = load ptr, ptr %3, align 8, !tbaa !113
  %13 = load ptr, ptr %12, align 8, !tbaa !109
  invoke void @_ZNKSt14default_deleteIN5osgeo4proj6common16IdentifiedObject7PrivateEEclEPS4_(ptr noundef nonnull align 1 dereferenceable(1) %11, ptr noundef %13)
          to label %14 unwind label %17

14:                                               ; preds = %10
  br label %15

15:                                               ; preds = %14, %1
  %16 = load ptr, ptr %3, align 8, !tbaa !113
  store ptr null, ptr %16, align 8, !tbaa !109
  call void @llvm.lifetime.end.p0(i64 8, ptr %3) #28
  ret void

17:                                               ; preds = %10
  %18 = landingpad { ptr, i32 }
          catch ptr null
  %19 = extractvalue { ptr, i32 } %18, 0
  call void @__clang_call_terminate(ptr %19) #31
  unreachable
}

; Function Attrs: noinline noreturn nounwind uwtable
define linkonce_odr hidden void @__clang_call_terminate(ptr noundef %0) #10 comdat {
  %2 = call ptr @__cxa_begin_catch(ptr %0) #28
  call void @_ZSt9terminatev() #31
  unreachable
}

; Function Attrs: mustprogress nounwind uwtable
define linkonce_odr hidden noundef nonnull align 1 dereferenceable(1) ptr @_ZNSt10unique_ptrIN5osgeo4proj6common11ObjectUsage7PrivateESt14default_deleteIS4_EE11get_deleterEv(ptr noundef nonnull align 8 dereferenceable(8) %0) #4 comdat align 2 {
  %2 = alloca ptr, align 8
  store ptr %0, ptr %2, align 8, !tbaa !244
  %3 = load ptr, ptr %2, align 8
  %4 = getelementptr inbounds nuw %"class.std::unique_ptr.208", ptr %3, i32 0, i32 0
  %5 = call noundef nonnull align 1 dereferenceable(1) ptr @_ZNSt15__uniq_ptr_implIN5osgeo4proj6common11ObjectUsage7PrivateESt14default_deleteIS4_EE10_M_deleterEv(ptr noundef nonnull align 8 dereferenceable(8) %4) #28
  ret ptr %5
}

; Function Attrs: mustprogress nounwind uwtable
define linkonce_odr hidden noundef nonnull align 8 dereferenceable(8) ptr @_ZNSt15__uniq_ptr_implIN5osgeo4proj6common11ObjectUsage7PrivateESt14default_deleteIS4_EE6_M_ptrEv(ptr noundef nonnull align 8 dereferenceable(8) %0) #4 comdat align 2 {
  %2 = alloca ptr, align 8
  store ptr %0, ptr %2, align 8, !tbaa !568
  %3 = load ptr, ptr %2, align 8
  %4 = getelementptr inbounds nuw %"class.std::__uniq_ptr_impl.210", ptr %3, i32 0, i32 0
  %5 = call noundef nonnull align 8 dereferenceable(8) ptr @_ZSt3getILm0EJPN5osgeo4proj6common11ObjectUsage7PrivateESt14default_deleteIS4_EEERNSt13tuple_elementIXT_ESt5tupleIJDpT0_EEE4typeERSC_(ptr noundef nonnull align 8 dereferenceable(8) %4) #28
  ret ptr %5
}

; Function Attrs: mustprogress nounwind uwtable
define void @_ZN5osgeo4proj6common16IdentifiedObjectD2Ev(ptr noundef nonnull align 8 dereferenceable(40) %0) unnamed_addr #4 align 2 {
  %2 = alloca ptr, align 8
  store ptr %0, ptr %2, align 8, !tbaa !103
  %3 = load ptr, ptr %2, align 8
  store ptr getelementptr inbounds inrange(-16, 32) ({ [6 x ptr], [5 x ptr], [5 x ptr] }, ptr @_ZTVN5osgeo4proj6common16IdentifiedObjectE, i32 0, i32 0, i32 2), ptr %3, align 8, !tbaa !14
  %4 = getelementptr inbounds i8, ptr %3, i64 16
  store ptr getelementptr inbounds inrange(-16, 24) ({ [6 x ptr], [5 x ptr], [5 x ptr] }, ptr @_ZTVN5osgeo4proj6common16IdentifiedObjectE, i32 0, i32 1, i32 2), ptr %4, align 8, !tbaa !14
  %5 = getelementptr inbounds i8, ptr %3, i64 24
  store ptr getelementptr inbounds inrange(-16, 24) ({ [6 x ptr], [5 x ptr], [5 x ptr] }, ptr @_ZTVN5osgeo4proj6common16IdentifiedObjectE, i32 0, i32 2, i32 2), ptr %5, align 8, !tbaa !14
  %6 = getelementptr inbounds nuw %"class.osgeo::proj::common::IdentifiedObject", ptr %3, i32 0, i32 3
  call void @_ZNSt10unique_ptrIN5osgeo4proj6common16IdentifiedObject7PrivateESt14default_deleteIS4_EED2Ev(ptr noundef nonnull align 8 dereferenceable(8) %6) #28
  %7 = getelementptr inbounds i8, ptr %3, i64 24
  call void @_ZN5osgeo4proj2io14IWKTExportableD2Ev(ptr noundef nonnull align 8 dereferenceable(8) %7) #28
  %8 = getelementptr inbounds i8, ptr %3, i64 16
  call void @_ZN5osgeo4proj4util11IComparableD2Ev(ptr noundef nonnull align 8 dereferenceable(8) %8) #28
  call void @_ZN5osgeo4proj4util10BaseObjectD2Ev(ptr noundef nonnull align 8 dereferenceable(16) %3) #28
  ret void
}

; Function Attrs: mustprogress nounwind uwtable
define linkonce_odr hidden void @_ZNSt10unique_ptrIN5osgeo4proj6common11ObjectUsage7PrivateESt14default_deleteIS4_EED2Ev(ptr noundef nonnull align 8 dereferenceable(8) %0) unnamed_addr #4 comdat align 2 personality ptr @__gxx_personality_v0 {
  %2 = alloca ptr, align 8
  %3 = alloca ptr, align 8
  store ptr %0, ptr %2, align 8, !tbaa !244
  %4 = load ptr, ptr %2, align 8
  call void @llvm.lifetime.start.p0(i64 8, ptr %3) #28
  %5 = getelementptr inbounds nuw %"class.std::unique_ptr.208", ptr %4, i32 0, i32 0
  %6 = call noundef nonnull align 8 dereferenceable(8) ptr @_ZNSt15__uniq_ptr_implIN5osgeo4proj6common11ObjectUsage7PrivateESt14default_deleteIS4_EE6_M_ptrEv(ptr noundef nonnull align 8 dereferenceable(8) %5) #28
  store ptr %6, ptr %3, align 8, !tbaa !246
  %7 = load ptr, ptr %3, align 8, !tbaa !246
  %8 = load ptr, ptr %7, align 8, !tbaa !242
  %9 = icmp ne ptr %8, null
  br i1 %9, label %10, label %15

10:                                               ; preds = %1
  %11 = call noundef nonnull align 1 dereferenceable(1) ptr @_ZNSt10unique_ptrIN5osgeo4proj6common11ObjectUsage7PrivateESt14default_deleteIS4_EE11get_deleterEv(ptr noundef nonnull align 8 dereferenceable(8) %4) #28
  %12 = load ptr, ptr %3, align 8, !tbaa !246
  %13 = load ptr, ptr %12, align 8, !tbaa !242
  invoke void @_ZNKSt14default_deleteIN5osgeo4proj6common11ObjectUsage7PrivateEEclEPS4_(ptr noundef nonnull align 1 dereferenceable(1) %11, ptr noundef %13)
          to label %14 unwind label %17

14:                                               ; preds = %10
  br label %15

15:                                               ; preds = %14, %1
  %16 = load ptr, ptr %3, align 8, !tbaa !246
  store ptr null, ptr %16, align 8, !tbaa !242
  call void @llvm.lifetime.end.p0(i64 8, ptr %3) #28
  ret void

17:                                               ; preds = %10
  %18 = landingpad { ptr, i32 }
          catch ptr null
  %19 = extractvalue { ptr, i32 } %18, 0
  call void @__clang_call_terminate(ptr %19) #31
  unreachable
}

; Function Attrs: mustprogress nounwind uwtable
define void @_ZN5osgeo4proj6common11ObjectUsageD2Ev(ptr noundef nonnull align 8 dereferenceable(48) %0) unnamed_addr #4 align 2 {
  %2 = alloca ptr, align 8
  store ptr %0, ptr %2, align 8, !tbaa !240
  %3 = load ptr, ptr %2, align 8
  store ptr getelementptr inbounds inrange(-16, 32) ({ [6 x ptr], [5 x ptr], [5 x ptr] }, ptr @_ZTVN5osgeo4proj6common11ObjectUsageE, i32 0, i32 0, i32 2), ptr %3, align 8, !tbaa !14
  %4 = getelementptr inbounds i8, ptr %3, i64 16
  store ptr getelementptr inbounds inrange(-16, 24) ({ [6 x ptr], [5 x ptr], [5 x ptr] }, ptr @_ZTVN5osgeo4proj6common11ObjectUsageE, i32 0, i32 1, i32 2), ptr %4, align 8, !tbaa !14
  %5 = getelementptr inbounds i8, ptr %3, i64 24
  store ptr getelementptr inbounds inrange(-16, 24) ({ [6 x ptr], [5 x ptr], [5 x ptr] }, ptr @_ZTVN5osgeo4proj6common11ObjectUsageE, i32 0, i32 2, i32 2), ptr %5, align 8, !tbaa !14
  %6 = getelementptr inbounds nuw %"class.osgeo::proj::common::ObjectUsage", ptr %3, i32 0, i32 1
  call void @_ZNSt10unique_ptrIN5osgeo4proj6common11ObjectUsage7PrivateESt14default_deleteIS4_EED2Ev(ptr noundef nonnull align 8 dereferenceable(8) %6) #28
  call void @_ZN5osgeo4proj6common16IdentifiedObjectD2Ev(ptr noundef nonnull align 8 dereferenceable(40) %3) #28
  ret void
}