; Function Attrs: mustprogress nounwind uwtable
define void @_ZN5osgeo4proj6common11ObjectUsageD2Ev(ptr noundef nonnull align 8 dereferenceable(48) initializes((0, 8), (16, 32)) %0) unnamed_addr #3 align 2 personality ptr @__gxx_personality_v0 {
  store ptr getelementptr inbounds nuw inrange(-16, 32) (i8, ptr @_ZTVN5osgeo4proj6common11ObjectUsageE, i64 16), ptr %0, align 8, !tbaa !3
  %2 = getelementptr inbounds nuw i8, ptr %0, i64 16
  store ptr getelementptr inbounds nuw inrange(-16, 24) (i8, ptr @_ZTVN5osgeo4proj6common11ObjectUsageE, i64 64), ptr %2, align 8, !tbaa !3
  %3 = getelementptr inbounds nuw i8, ptr %0, i64 24
  store ptr getelementptr inbounds nuw inrange(-16, 24) (i8, ptr @_ZTVN5osgeo4proj6common11ObjectUsageE, i64 104), ptr %3, align 8, !tbaa !3
  %4 = getelementptr inbounds nuw i8, ptr %0, i64 40
  %5 = load ptr, ptr %4, align 8, !tbaa !265
  %.not.i = icmp eq ptr %5, null
  br i1 %.not.i, label %_ZNSt10unique_ptrIN5osgeo4proj6common11ObjectUsage7PrivateESt14default_deleteIS4_EED2Ev.exit, label %6

6:                                                ; preds = %1
  tail call void @_ZNKSt14default_deleteIN5osgeo4proj6common11ObjectUsage7PrivateEEclEPS4_(ptr noundef nonnull align 8 dereferenceable(8) %4, ptr noundef nonnull %5)
  br label %_ZNSt10unique_ptrIN5osgeo4proj6common11ObjectUsage7PrivateESt14default_deleteIS4_EED2Ev.exit

_ZNSt10unique_ptrIN5osgeo4proj6common11ObjectUsage7PrivateESt14default_deleteIS4_EED2Ev.exit: ; preds = %1, %6
  store ptr null, ptr %4, align 8, !tbaa !265
  store ptr getelementptr inbounds nuw inrange(-16, 32) (i8, ptr @_ZTVN5osgeo4proj6common16IdentifiedObjectE, i64 16), ptr %0, align 8, !tbaa !3
  store ptr getelementptr inbounds nuw inrange(-16, 24) (i8, ptr @_ZTVN5osgeo4proj6common16IdentifiedObjectE, i64 64), ptr %2, align 8, !tbaa !3
  store ptr getelementptr inbounds nuw inrange(-16, 24) (i8, ptr @_ZTVN5osgeo4proj6common16IdentifiedObjectE, i64 104), ptr %3, align 8, !tbaa !3
  %7 = getelementptr inbounds nuw i8, ptr %0, i64 32
  %8 = load ptr, ptr %7, align 8, !tbaa !138
  %.not.i.i = icmp eq ptr %8, null
  br i1 %.not.i.i, label %_ZN5osgeo4proj6common16IdentifiedObjectD2Ev.exit, label %_ZNKSt14default_deleteIN5osgeo4proj6common16IdentifiedObject7PrivateEEclEPS4_.exit.i.i

_ZNKSt14default_deleteIN5osgeo4proj6common16IdentifiedObject7PrivateEEclEPS4_.exit.i.i: ; preds = %_ZNSt10unique_ptrIN5osgeo4proj6common11ObjectUsage7PrivateESt14default_deleteIS4_EED2Ev.exit
  tail call void @_ZN5osgeo4proj6common16IdentifiedObject7PrivateD2Ev(ptr noundef nonnull align 8 dereferenceable(97) %8) #40
  tail call void @_ZdlPvm(ptr noundef nonnull %8, i64 noundef 104) #39
  br label %_ZN5osgeo4proj6common16IdentifiedObjectD2Ev.exit

_ZN5osgeo4proj6common16IdentifiedObjectD2Ev.exit: ; preds = %_ZNSt10unique_ptrIN5osgeo4proj6common11ObjectUsage7PrivateESt14default_deleteIS4_EED2Ev.exit, %_ZNKSt14default_deleteIN5osgeo4proj6common16IdentifiedObject7PrivateEEclEPS4_.exit.i.i
  store ptr null, ptr %7, align 8, !tbaa !138
  tail call void @_ZN5osgeo4proj2io14IWKTExportableD2Ev(ptr noundef nonnull align 8 dereferenceable(8) %3) #40
  tail call void @_ZN5osgeo4proj4util11IComparableD2Ev(ptr noundef nonnull align 8 dereferenceable(8) %2) #40
  tail call void @_ZN5osgeo4proj4util10BaseObjectD2Ev(ptr noundef nonnull align 8 dereferenceable(40) %0) #40
  ret void
}